target datalayout = "e-m:e-p270:32:32-p271:32:32-p272:64:64-i64:64-i128:128-f80:128-n8:16:32:64-S128"
target triple = "x86_64-pc-linux-gnu"

%struct._e_guid_t = type { i32, i16, i16, [8 x i8] }
%struct._guid_key = type { %struct._e_guid_t, i16 }

; Function Attrs: nounwind null_pointer_is_valid sspstrong uwtable
define internal i32 @dcerpc_uuid_equal(ptr noundef %0, ptr noundef %1) #10 {
  %3 = alloca ptr, align 8
  %4 = alloca ptr, align 8
  %5 = alloca ptr, align 8
  %6 = alloca ptr, align 8
  store ptr %0, ptr %3, align 8
  store ptr %1, ptr %4, align 8
  call void @llvm.lifetime.start.p0(i64 8, ptr %5) #19
  %7 = load ptr, ptr %3, align 8
  store ptr %7, ptr %5, align 8
  call void @llvm.lifetime.start.p0(i64 8, ptr %6) #19
  %8 = load ptr, ptr %4, align 8
  store ptr %8, ptr %6, align 8
  %9 = load ptr, ptr %5, align 8
  %10 = getelementptr inbounds nuw %struct._guid_key, ptr %9, i32 0, i32 0
  %11 = load ptr, ptr %6, align 8
  %12 = getelementptr inbounds nuw %struct._guid_key, ptr %11, i32 0, i32 0
  %13 = call i32 @memcmp(ptr noundef %10, ptr noundef %12, i64 noundef 16) #25
  %14 = icmp eq i32 %13, 0
  br i1 %14, label %15, label %25

15:                                               ; preds = %2
  %16 = load ptr, ptr %5, align 8
  %17 = getelementptr inbounds nuw %struct._guid_key, ptr %16, i32 0, i32 1
  %18 = load i16, ptr %17, align 4
  %19 = zext i16 %18 to i32
  %20 = load ptr, ptr %6, align 8
  %21 = getelementptr inbounds nuw %struct._guid_key, ptr %20, i32 0, i32 1
  %22 = load i16, ptr %21, align 4
  %23 = zext i16 %22 to i32
  %24 = icmp eq i32 %19, %23
  br label %25

25:                                               ; preds = %15, %2
  %26 = phi i1 [ false, %2 ], [ %24, %15 ]
  %27 = zext i1 %26 to i32
  call void @llvm.lifetime.end.p0(i64 8, ptr %6) #19
  call void @llvm.lifetime.end.p0(i64 8, ptr %5) #19
  ret i32 %27
}