; Function Attrs: mustprogress nofree nounwind null_pointer_is_valid sspstrong willreturn memory(argmem: read) uwtable
define internal range(i32 0, 2) i32 @dcerpc_uuid_equal(ptr noundef readonly captures(none) %0, ptr noundef readonly captures(none) %1) #8 {
  %bcmp = tail call i32 @bcmp(ptr noundef dereferenceable(16) %0, ptr noundef dereferenceable(16) %1, i64 16)
  %3 = icmp eq i32 %bcmp, 0
  br i1 %3, label %4, label %11

4:                                                ; preds = %2
  %5 = getelementptr inbounds nuw i8, ptr %0, i64 16
  %6 = load i16, ptr %5, align 4
  %7 = getelementptr inbounds nuw i8, ptr %1, i64 16
  %8 = load i16, ptr %7, align 4
  %9 = icmp eq i16 %6, %8
  %10 = zext i1 %9 to i32
  br label %11

11:                                               ; preds = %4, %2
  %12 = phi i32 [ 0, %2 ], [ %10, %4 ]
  ret i32 %12
}